target datalayout = "e-m:e-p270:32:32-p271:32:32-p272:64:64-i64:64-i128:128-f80:128-n8:16:32:64-S128"
target triple = "x86_64-pc-linux-gnu"

%struct._packet_info = type { ptr, ptr, i32, i32, %struct.nstime_t, %struct.nstime_t, %struct.nstime_t, i8, ptr, ptr, ptr, ptr, %struct._address, %struct._address, %struct._address, %struct._address, %struct._address, %struct._address, i32, ptr, i8, [3 x i8], %struct.anon, i32, i32, i32, i32, ptr, i8, ptr, ptr, i16, i16, i32, i32, i16, i32, i32, ptr, ptr, ptr, i8, i8, i16, i16, i16, i32, i16, i16, ptr, ptr, ptr, ptr, ptr, i32, i32 }
%struct.nstime_t = type { i64, i32 }
%struct._address = type { i32, i32, ptr, ptr }
%struct.anon = type { i8, [3 x i8] }
%struct._proto_node = type { ptr, ptr, ptr, ptr, ptr, ptr, ptr }
%struct.field_info = type { ptr, i32, i32, i32, i32, i32, i32, ptr, ptr, ptr, i32, i32 }

@hf_cba_acco_count = internal global i32 0, align 4
@hf_cba_acco_srt_call = internal global i32 0, align 4
@hf_cba_acco_conn_prov_id = internal global i32 0, align 4
@hf_cba_acco_conn_state = internal global i32 0, align 4
@proto_ICBAAccoMgt = internal global i32 0, align 4
@.str.260 = private unnamed_addr constant [9 x i8] c": Cnt=%u\00", align 1

; Function Attrs: inlinehint nounwind null_pointer_is_valid sspstrong uwtable
define internal void @proto_item_set_generated(ptr noundef %0) #10 {
  %2 = alloca ptr, align 8
  store ptr %0, ptr %2, align 8
  %3 = load ptr, ptr %2, align 8
  %4 = icmp ne ptr %3, null
  br i1 %4, label %5, label %24

5:                                                ; preds = %1
  br label %6

6:                                                ; preds = %5
  %7 = load ptr, ptr %2, align 8
  %8 = getelementptr inbounds nuw %struct._proto_node, ptr %7, i32 0, i32 5
  %9 = load ptr, ptr %8, align 8
  %10 = icmp ne ptr %9, null
  br i1 %10, label %11, label %22

11:                                               ; preds = %6
  %12 = load ptr, ptr %2, align 8
  %13 = getelementptr inbounds nuw %struct._proto_node, ptr %12, i32 0, i32 5
  %14 = load ptr, ptr %13, align 8
  %15 = getelementptr inbounds nuw %struct.field_info, ptr %14, i32 0, i32 6
  %16 = load i32, ptr %15, align 4
  %17 = or i32 %16, 2
  %18 = load ptr, ptr %2, align 8
  %19 = getelementptr inbounds nuw %struct._proto_node, ptr %18, i32 0, i32 5
  %20 = load ptr, ptr %19, align 8
  %21 = getelementptr inbounds nuw %struct.field_info, ptr %20, i32 0, i32 6
  store i32 %17, ptr %21, align 4
  br label %22

22:                                               ; preds = %11, %6
  br label %23

23:                                               ; preds = %22
  br label %24

24:                                               ; preds = %23, %1
  ret void
}

; Function Attrs: null_pointer_is_valid sspstrong uwtable
define internal i32 @dissect_ICBAAccoServerSRT_SetActivation_rqst(ptr noundef %0, i32 noundef %1, ptr noundef %2, ptr noundef %3, ptr noundef %4, ptr noundef %5) #0 {
  %7 = alloca ptr, align 8
  %8 = alloca i32, align 4
  %9 = alloca ptr, align 8
  %10 = alloca ptr, align 8
  %11 = alloca ptr, align 8
  %12 = alloca ptr, align 8
  %13 = alloca i8, align 1
  %14 = alloca i32, align 4
  %15 = alloca i32, align 4
  %16 = alloca i32, align 4
  %17 = alloca i32, align 4
  %18 = alloca ptr, align 8
  store ptr %0, ptr %7, align 8
  store i32 %1, ptr %8, align 4
  store ptr %2, ptr %9, align 8
  store ptr %3, ptr %10, align 8
  store ptr %4, ptr %11, align 8
  store ptr %5, ptr %12, align 8
  call void @llvm.lifetime.start.p0(i64 1, ptr %13) #12
  call void @llvm.lifetime.start.p0(i64 4, ptr %14) #12
  call void @llvm.lifetime.start.p0(i64 4, ptr %15) #12
  call void @llvm.lifetime.start.p0(i64 4, ptr %16) #12
  call void @llvm.lifetime.start.p0(i64 4, ptr %17) #12
  call void @llvm.lifetime.start.p0(i64 8, ptr %18) #12
  %19 = load ptr, ptr %7, align 8
  %20 = load i32, ptr %8, align 4
  %21 = load ptr, ptr %9, align 8
  %22 = load ptr, ptr %10, align 8
  %23 = load ptr, ptr %11, align 8
  %24 = load ptr, ptr %12, align 8
  %25 = call i32 @dissect_dcom_this(ptr noundef %19, i32 noundef %20, ptr noundef %21, ptr noundef %22, ptr noundef %23, ptr noundef %24)
  store i32 %25, ptr %8, align 4
  %26 = load ptr, ptr %10, align 8
  %27 = load i32, ptr @hf_cba_acco_srt_call, align 4
  %28 = load ptr, ptr %7, align 8
  %29 = load i32, ptr %8, align 4
  %30 = call ptr @proto_tree_add_boolean(ptr noundef %26, i32 noundef %27, ptr noundef %28, i32 noundef %29, i32 noundef 0, i64 noundef 1)
  store ptr %30, ptr %18, align 8
  %31 = load ptr, ptr %18, align 8
  call void @proto_item_set_generated(ptr noundef %31)
  %32 = load ptr, ptr %9, align 8
  %33 = getelementptr inbounds nuw %struct._packet_info, ptr %32, i32 0, i32 51
  %34 = load ptr, ptr %33, align 8
  %35 = load ptr, ptr %9, align 8
  %36 = load i32, ptr @proto_ICBAAccoMgt, align 4
  call void @p_add_proto_data(ptr noundef %34, ptr noundef %35, i32 noundef %36, i32 noundef 0, ptr noundef inttoptr (i64 4 to ptr))
  %37 = load ptr, ptr %7, align 8
  %38 = load i32, ptr %8, align 4
  %39 = load ptr, ptr %9, align 8
  %40 = load ptr, ptr %10, align 8
  %41 = load ptr, ptr %11, align 8
  %42 = load ptr, ptr %12, align 8
  %43 = load i32, ptr @hf_cba_acco_conn_state, align 4
  %44 = call i32 @dissect_ndr_uint8(ptr noundef %37, i32 noundef %38, ptr noundef %39, ptr noundef %40, ptr noundef %41, ptr noundef %42, i32 noundef %43, ptr noundef %13)
  store i32 %44, ptr %8, align 4
  %45 = load ptr, ptr %7, align 8
  %46 = load i32, ptr %8, align 4
  %47 = load ptr, ptr %9, align 8
  %48 = load ptr, ptr %10, align 8
  %49 = load ptr, ptr %11, align 8
  %50 = load ptr, ptr %12, align 8
  %51 = load i32, ptr @hf_cba_acco_count, align 4
  %52 = call i32 @dissect_ndr_uint32(ptr noundef %45, i32 noundef %46, ptr noundef %47, ptr noundef %48, ptr noundef %49, ptr noundef %50, i32 noundef %51, ptr noundef %14)
  store i32 %52, ptr %8, align 4
  %53 = load ptr, ptr %7, align 8
  %54 = load i32, ptr %8, align 4
  %55 = load ptr, ptr %9, align 8
  %56 = load ptr, ptr %10, align 8
  %57 = load ptr, ptr %11, align 8
  %58 = load ptr, ptr %12, align 8
  %59 = call i32 @dissect_dcom_dcerpc_array_size(ptr noundef %53, i32 noundef %54, ptr noundef %55, ptr noundef %56, ptr noundef %57, ptr noundef %58, ptr noundef %15)
  store i32 %59, ptr %8, align 4
  store i32 1, ptr %16, align 4
  br label %60

60:                                               ; preds = %64, %6
  %61 = load i32, ptr %15, align 4
  %62 = add i32 %61, -1
  store i32 %62, ptr %15, align 4
  %63 = icmp ne i32 %61, 0
  br i1 %63, label %64, label %76

64:                                               ; preds = %60
  %65 = load ptr, ptr %7, align 8
  %66 = load i32, ptr %8, align 4
  %67 = load ptr, ptr %9, align 8
  %68 = load ptr, ptr %10, align 8
  %69 = load ptr, ptr %11, align 8
  %70 = load ptr, ptr %12, align 8
  %71 = load i32, ptr @hf_cba_acco_conn_prov_id, align 4
  %72 = load i32, ptr %16, align 4
  %73 = call i32 @dissect_dcom_indexed_DWORD(ptr noundef %65, i32 noundef %66, ptr noundef %67, ptr noundef %68, ptr noundef %69, ptr noundef %70, i32 noundef %71, ptr noundef %17, i32 noundef %72)
  store i32 %73, ptr %8, align 4
  %74 = load i32, ptr %16, align 4
  %75 = add i32 %74, 1
  store i32 %75, ptr %16, align 4
  br label %60, !llvm.loop !53

76:                                               ; preds = %60
  %77 = load ptr, ptr %9, align 8
  %78 = getelementptr inbounds nuw %struct._packet_info, ptr %77, i32 0, i32 1
  %79 = load ptr, ptr %78, align 8
  %80 = load i32, ptr %14, align 4
  call void (ptr, i32, ptr, ...) @col_append_fstr(ptr noundef %79, i32 noundef 25, ptr noundef @.str.260, i32 noundef %80)
  %81 = load i32, ptr %8, align 4
  call void @llvm.lifetime.end.p0(i64 8, ptr %18) #12
  call void @llvm.lifetime.end.p0(i64 4, ptr %17) #12
  call void @llvm.lifetime.end.p0(i64 4, ptr %16) #12
  call void @llvm.lifetime.end.p0(i64 4, ptr %15) #12
  call void @llvm.lifetime.end.p0(i64 4, ptr %14) #12
  call void @llvm.lifetime.end.p0(i64 1, ptr %13) #12
  ret i32 %81
}