; Function Attrs: null_pointer_is_valid sspstrong uwtable
define internal i32 @dissect_ICBAAccoServerSRT_SetActivation_rqst(ptr noundef %0, i32 noundef %1, ptr noundef %2, ptr noundef %3, ptr noundef %4, ptr noundef %5) #0 {
  %7 = alloca i8, align 1
  %8 = alloca i32, align 4
  %9 = alloca i32, align 4
  %10 = alloca i32, align 4
  call void @llvm.lifetime.start.p0(i64 1, ptr nonnull %7) #12
  call void @llvm.lifetime.start.p0(i64 4, ptr nonnull %8) #12
  call void @llvm.lifetime.start.p0(i64 4, ptr nonnull %9) #12
  call void @llvm.lifetime.start.p0(i64 4, ptr nonnull %10) #12
  %11 = tail call i32 @dissect_dcom_this(ptr noundef %0, i32 noundef %1, ptr noundef %2, ptr noundef %3, ptr noundef %4, ptr noundef %5)
  %12 = load i32, ptr @hf_cba_acco_srt_call, align 4
  %13 = tail call ptr @proto_tree_add_boolean(ptr noundef %3, i32 noundef %12, ptr noundef %0, i32 noundef %11, i32 noundef 0, i64 noundef 1)
  %.not.i = icmp eq ptr %13, null
  br i1 %.not.i, label %proto_item_set_generated.exit, label %14

14:                                               ; preds = %6
  %15 = getelementptr inbounds nuw i8, ptr %13, i64 40
  %16 = load ptr, ptr %15, align 8
  %.not5.i = icmp eq ptr %16, null
  br i1 %.not5.i, label %proto_item_set_generated.exit, label %17

17:                                               ; preds = %14
  %18 = getelementptr inbounds nuw i8, ptr %16, i64 28
  %19 = load i32, ptr %18, align 4
  %20 = or i32 %19, 2
  store i32 %20, ptr %18, align 4
  br label %proto_item_set_generated.exit

proto_item_set_generated.exit:                    ; preds = %6, %14, %17
  %21 = getelementptr inbounds nuw i8, ptr %2, i64 408
  %22 = load ptr, ptr %21, align 8
  %23 = load i32, ptr @proto_ICBAAccoMgt, align 4
  tail call void @p_add_proto_data(ptr noundef %22, ptr noundef %2, i32 noundef %23, i32 noundef 0, ptr noundef nonnull inttoptr (i64 4 to ptr))
  %24 = load i32, ptr @hf_cba_acco_conn_state, align 4
  %25 = call i32 @dissect_ndr_uint8(ptr noundef %0, i32 noundef %11, ptr noundef %2, ptr noundef %3, ptr noundef %4, ptr noundef %5, i32 noundef %24, ptr noundef nonnull %7)
  %26 = load i32, ptr @hf_cba_acco_count, align 4
  %27 = call i32 @dissect_ndr_uint32(ptr noundef %0, i32 noundef %25, ptr noundef %2, ptr noundef %3, ptr noundef %4, ptr noundef %5, i32 noundef %26, ptr noundef nonnull %8)
  %28 = call i32 @dissect_dcom_dcerpc_array_size(ptr noundef %0, i32 noundef %27, ptr noundef %2, ptr noundef %3, ptr noundef %4, ptr noundef %5, ptr noundef nonnull %9)
  %29 = load i32, ptr %9, align 4
  %30 = add i32 %29, -1
  store i32 %30, ptr %9, align 4
  %.not40 = icmp eq i32 %29, 0
  br i1 %.not40, label %._crit_edge, label %.lr.ph

.lr.ph:                                           ; preds = %proto_item_set_generated.exit, %.lr.ph
  %.042 = phi i32 [ %32, %.lr.ph ], [ %28, %proto_item_set_generated.exit ]
  %.03941 = phi i32 [ %33, %.lr.ph ], [ 1, %proto_item_set_generated.exit ]
  %31 = load i32, ptr @hf_cba_acco_conn_prov_id, align 4
  %32 = call i32 @dissect_dcom_indexed_DWORD(ptr noundef %0, i32 noundef %.042, ptr noundef %2, ptr noundef %3, ptr noundef %4, ptr noundef %5, i32 noundef %31, ptr noundef nonnull %10, i32 noundef %.03941)
  %33 = add i32 %.03941, 1
  %34 = load i32, ptr %9, align 4
  %35 = add i32 %34, -1
  store i32 %35, ptr %9, align 4
  %.not = icmp eq i32 %34, 0
  br i1 %.not, label %._crit_edge, label %.lr.ph, !llvm.loop !53

._crit_edge:                                      ; preds = %.lr.ph, %proto_item_set_generated.exit
  %.0.lcssa = phi i32 [ %28, %proto_item_set_generated.exit ], [ %32, %.lr.ph ]
  %36 = getelementptr inbounds nuw i8, ptr %2, i64 8
  %37 = load ptr, ptr %36, align 8
  %38 = load i32, ptr %8, align 4
  call void (ptr, i32, ptr, ...) @col_append_fstr(ptr noundef %37, i32 noundef 25, ptr noundef nonnull @.str.260, i32 noundef %38)
  call void @llvm.lifetime.end.p0(i64 4, ptr nonnull %10) #12
  call void @llvm.lifetime.end.p0(i64 4, ptr nonnull %9) #12
  call void @llvm.lifetime.end.p0(i64 4, ptr nonnull %8) #12
  call void @llvm.lifetime.end.p0(i64 1, ptr nonnull %7) #12
  ret i32 %.0.lcssa
}